; Function Attrs: mustprogress uwtable
define hidden noundef zeroext i1 @_ZNK18OpenImageIO_v2_6_08JpgInput10valid_fileEPNS_10Filesystem7IOProxyE(ptr nocapture nonnull readnone align 8 %this, ptr noundef %ioproxy) unnamed_addr #6 align 2 {
entry:
  %magic = alloca [2 x i8], align 2
  %tobool.not = icmp eq ptr %ioproxy, null
  br i1 %tobool.not, label %return, label %lor.lhs.false

lor.lhs.false:                                    ; preds = %entry
  %m_mode.i = getelementptr inbounds i8, ptr %ioproxy, i64 48
  %0 = load i32, ptr %m_mode.i, align 8
  %cmp.not = icmp eq i32 %0, 114
  br i1 %cmp.not, label %if.end, label %return

if.end:                                           ; preds = %lor.lhs.false
  store i16 0, ptr %magic, align 2
  %vtable = load ptr, ptr %ioproxy, align 8
  %vfn = getelementptr inbounds i8, ptr %vtable, i64 72
  %1 = load ptr, ptr %vfn, align 8
  %call2 = call noundef i64 %1(ptr noundef nonnull align 8 dereferenceable(88) %ioproxy, ptr noundef nonnull %magic, i64 noundef 2, i64 noundef 0)
  %cmp3 = icmp eq i64 %call2, 2
  %2 = load i8, ptr %magic, align 2
  %cmp4 = icmp eq i8 %2, -1
  %or.cond = select i1 %cmp3, i1 %cmp4, i1 false
  br i1 %or.cond, label %land.rhs, label %return

land.rhs:                                         ; preds = %if.end
  %arrayidx5 = getelementptr inbounds i8, ptr %magic, i64 1
  %3 = load i8, ptr %arrayidx5, align 1
  %cmp7 = icmp eq i8 %3, -40
  br label %return

return:                                           ; preds = %if.end, %land.rhs, %entry, %lor.lhs.false
  %retval.0 = phi i1 [ false, %lor.lhs.false ], [ false, %entry ], [ false, %if.end ], [ %cmp7, %land.rhs ]
  ret i1 %retval.0
}